; Function Attrs: mustprogress nounwind uwtable
define hidden void @_ZN4cvc58internal9TimerStat5startEv(ptr noundef nonnull readonly align 8 captures(none) dereferenceable(8) %this) local_unnamed_addr #2 align 2 {
entry:
  %call = tail call i64 @_ZNSt6chrono3_V212steady_clock3nowEv() #5
  %0 = load ptr, ptr %this, align 8
  %d_start = getelementptr inbounds nuw i8, ptr %0, i64 24
  store i64 %call, ptr %d_start, align 8
  %1 = load ptr, ptr %this, align 8
  %d_running = getelementptr inbounds nuw i8, ptr %1, i64 32
  store i8 1, ptr %d_running, align 8
  ret void
}